; Function Attrs: mustprogress uwtable
define void @_ZNK6casadi12OptiAdvanced8g_lookupEx(ptr dead_on_unwind noalias writable sret(%"class.casadi::MX") align 8 %0, ptr noundef nonnull align 8 dereferenceable(11) %1, i64 noundef %2) local_unnamed_addr #3 align 2 personality ptr @__gxx_personality_v0 {
  %4 = alloca %"class.std::__cxx11::basic_string", align 8
  %5 = alloca %"class.std::__cxx11::basic_string", align 8
  %6 = alloca %"class.std::__cxx11::basic_string", align 8
  %7 = alloca %"class.std::__cxx11::basic_string", align 8
  %8 = alloca %"class.std::__cxx11::basic_string", align 8
  %9 = alloca %"class.std::__cxx11::basic_string", align 8
  %10 = alloca %"class.std::__cxx11::basic_string", align 8
  %11 = alloca %"class.std::__cxx11::basic_string", align 8
  %12 = alloca %"class.std::allocator.35", align 1
  %13 = alloca %"class.std::__cxx11::basic_string", align 8
  %14 = alloca %"class.std::allocator.35", align 1
  %15 = invoke noundef ptr @_ZNK6casadi12SharedObjectptEv(ptr noundef nonnull align 8 dereferenceable(8) %1)
          to label %_ZNK6casadi4OptiptEv.exit unwind label %17

_ZNK6casadi4OptiptEv.exit:                        ; preds = %3
  invoke void @_ZNK6casadi8OptiNode8g_lookupEx(ptr dead_on_unwind writable sret(%"class.casadi::MX") align 8 %0, ptr noundef nonnull align 8 dereferenceable(672) %15, i64 noundef %2)
          to label %16 unwind label %17

16:                                               ; preds = %_ZNK6casadi4OptiptEv.exit
  ret void

17:                                               ; preds = %3, %_ZNK6casadi4OptiptEv.exit
  %18 = landingpad { ptr, i32 }
          catch ptr @_ZTISt9exception
  %19 = extractvalue { ptr, i32 } %18, 1
  %20 = tail call i32 @llvm.eh.typeid.for(ptr nonnull @_ZTISt9exception) #17
  %21 = icmp eq i32 %19, %20
  br i1 %21, label %22, label %70

22:                                               ; preds = %17
  %23 = extractvalue { ptr, i32 } %18, 0
  %24 = tail call ptr @__cxa_begin_catch(ptr %23) #17
  %25 = tail call ptr @__cxa_allocate_exception(i64 40) #17
  invoke void @_ZNK6casadi12SharedObject10class_nameB5cxx11Ev(ptr dead_on_unwind nonnull writable sret(%"class.std::__cxx11::basic_string") align 8 %9, ptr noundef nonnull align 8 dereferenceable(8) %1)
          to label %26 unwind label %.thread

26:                                               ; preds = %22
  %27 = invoke noundef nonnull align 8 dereferenceable(32) ptr @_ZNSt7__cxx1112basic_stringIcSt11char_traitsIcESaIcEE6insertEmPKc(ptr noundef nonnull align 8 dereferenceable(32) %9, i64 noundef 0, ptr noundef nonnull @.str.96)
          to label %28 unwind label %.thread42

28:                                               ; preds = %26
  call void @_ZNSt7__cxx1112basic_stringIcSt11char_traitsIcESaIcEEC1EOS4_(ptr noundef nonnull align 8 dereferenceable(32) %8, ptr noundef nonnull align 8 dereferenceable(32) %27) #17
  %29 = invoke noundef nonnull align 8 dereferenceable(32) ptr @_ZNSt7__cxx1112basic_stringIcSt11char_traitsIcESaIcEE6appendEPKc(ptr noundef nonnull align 8 dereferenceable(32) %8, ptr noundef nonnull @.str.1)
          to label %30 unwind label %45

30:                                               ; preds = %28
  call void @_ZNSt7__cxx1112basic_stringIcSt11char_traitsIcESaIcEEC1EOS4_(ptr noundef nonnull align 8 dereferenceable(32) %7, ptr noundef nonnull align 8 dereferenceable(32) %29) #17
  call void @_ZNSaIcEC1Ev(ptr noundef nonnull align 1 dereferenceable(1) %12) #17
  invoke void @_ZNSt7__cxx1112basic_stringIcSt11char_traitsIcESaIcEEC2IS3_EEPKcRKS3_(ptr noundef nonnull align 8 dereferenceable(32) %11, ptr noundef nonnull @.str.97, ptr noundef nonnull align 1 dereferenceable(1) %12)
          to label %31 unwind label %47

31:                                               ; preds = %30
  invoke void @_ZN6casadi9trim_pathERKNSt7__cxx1112basic_stringIcSt11char_traitsIcESaIcEEE(ptr dead_on_unwind nonnull writable sret(%"class.std::__cxx11::basic_string") align 8 %10, ptr noundef nonnull align 8 dereferenceable(32) %11)
          to label %32 unwind label %49

32:                                               ; preds = %31
  invoke void @_ZStplIcSt11char_traitsIcESaIcEENSt7__cxx1112basic_stringIT_T0_T1_EEOS8_S9_(ptr dead_on_unwind nonnull writable sret(%"class.std::__cxx11::basic_string") align 8 %6, ptr noundef nonnull align 8 dereferenceable(32) %7, ptr noundef nonnull align 8 dereferenceable(32) %10)
          to label %33 unwind label %51

33:                                               ; preds = %32
  %34 = invoke noundef nonnull align 8 dereferenceable(32) ptr @_ZNSt7__cxx1112basic_stringIcSt11char_traitsIcESaIcEE6appendEPKc(ptr noundef nonnull align 8 dereferenceable(32) %6, ptr noundef nonnull @.str.3)
          to label %35 unwind label %53

35:                                               ; preds = %33
  call void @_ZNSt7__cxx1112basic_stringIcSt11char_traitsIcESaIcEEC1EOS4_(ptr noundef nonnull align 8 dereferenceable(32) %5, ptr noundef nonnull align 8 dereferenceable(32) %34) #17
  %36 = load ptr, ptr %24, align 8
  %37 = getelementptr inbounds i8, ptr %36, i64 16
  %38 = load ptr, ptr %37, align 8
  %39 = call noundef ptr %38(ptr noundef nonnull align 8 dereferenceable(8) %24) #17
  call void @_ZNSaIcEC1Ev(ptr noundef nonnull align 1 dereferenceable(1) %14) #17
  invoke void @_ZNSt7__cxx1112basic_stringIcSt11char_traitsIcESaIcEEC2IS3_EEPKcRKS3_(ptr noundef nonnull align 8 dereferenceable(32) %13, ptr noundef %39, ptr noundef nonnull align 1 dereferenceable(1) %14)
          to label %40 unwind label %55

40:                                               ; preds = %35
  invoke void @_ZStplIcSt11char_traitsIcESaIcEENSt7__cxx1112basic_stringIT_T0_T1_EEOS8_S9_(ptr dead_on_unwind nonnull writable sret(%"class.std::__cxx11::basic_string") align 8 %4, ptr noundef nonnull align 8 dereferenceable(32) %5, ptr noundef nonnull align 8 dereferenceable(32) %13)
          to label %41 unwind label %57

41:                                               ; preds = %40
  invoke void @_ZN6casadi15CasadiExceptionC2ERKNSt7__cxx1112basic_stringIcSt11char_traitsIcESaIcEEE(ptr noundef nonnull align 8 dereferenceable(40) %25, ptr noundef nonnull align 8 dereferenceable(32) %4)
          to label %42 unwind label %59

42:                                               ; preds = %41
  invoke void @__cxa_throw(ptr nonnull %25, ptr nonnull @_ZTIN6casadi15CasadiExceptionE, ptr nonnull @_ZN6casadi15CasadiExceptionD2Ev) #18
          to label %74 unwind label %59

.thread:                                          ; preds = %22
  %43 = landingpad { ptr, i32 }
          cleanup
  br label %68

.thread42:                                        ; preds = %26
  %44 = landingpad { ptr, i32 }
          cleanup
  call void @_ZNSt7__cxx1112basic_stringIcSt11char_traitsIcESaIcEED1Ev(ptr noundef nonnull align 8 dereferenceable(32) %9) #17
  br label %68

45:                                               ; preds = %28
  %46 = landingpad { ptr, i32 }
          cleanup
  br label %67

47:                                               ; preds = %30
  %48 = landingpad { ptr, i32 }
          cleanup
  br label %66

49:                                               ; preds = %31
  %50 = landingpad { ptr, i32 }
          cleanup
  br label %65

51:                                               ; preds = %32
  %52 = landingpad { ptr, i32 }
          cleanup
  br label %64

53:                                               ; preds = %33
  %54 = landingpad { ptr, i32 }
          cleanup
  br label %63

55:                                               ; preds = %35
  %56 = landingpad { ptr, i32 }
          cleanup
  br label %62

57:                                               ; preds = %40
  %58 = landingpad { ptr, i32 }
          cleanup
  br label %61

59:                                               ; preds = %42, %41
  %.0 = phi i1 [ false, %42 ], [ true, %41 ]
  %60 = landingpad { ptr, i32 }
          cleanup
  call void @_ZNSt7__cxx1112basic_stringIcSt11char_traitsIcESaIcEED1Ev(ptr noundef nonnull align 8 dereferenceable(32) %4) #17
  br label %61

61:                                               ; preds = %59, %57
  %.pn = phi { ptr, i32 } [ %60, %59 ], [ %58, %57 ]
  %.1 = phi i1 [ %.0, %59 ], [ true, %57 ]
  call void @_ZNSt7__cxx1112basic_stringIcSt11char_traitsIcESaIcEED1Ev(ptr noundef nonnull align 8 dereferenceable(32) %13) #17
  br label %62

62:                                               ; preds = %61, %55
  %.pn.pn = phi { ptr, i32 } [ %.pn, %61 ], [ %56, %55 ]
  %.2 = phi i1 [ %.1, %61 ], [ true, %55 ]
  call void @_ZNSaIcED1Ev(ptr noundef nonnull align 1 dereferenceable(1) %14) #17
  call void @_ZNSt7__cxx1112basic_stringIcSt11char_traitsIcESaIcEED1Ev(ptr noundef nonnull align 8 dereferenceable(32) %5) #17
  br label %63

63:                                               ; preds = %62, %53
  %.pn.pn.pn = phi { ptr, i32 } [ %.pn.pn, %62 ], [ %54, %53 ]
  %.3 = phi i1 [ %.2, %62 ], [ true, %53 ]
  call void @_ZNSt7__cxx1112basic_stringIcSt11char_traitsIcESaIcEED1Ev(ptr noundef nonnull align 8 dereferenceable(32) %6) #17
  br label %64

64:                                               ; preds = %63, %51
  %.pn.pn.pn.pn = phi { ptr, i32 } [ %.pn.pn.pn, %63 ], [ %52, %51 ]
  %.4 = phi i1 [ %.3, %63 ], [ true, %51 ]
  call void @_ZNSt7__cxx1112basic_stringIcSt11char_traitsIcESaIcEED1Ev(ptr noundef nonnull align 8 dereferenceable(32) %10) #17
  br label %65

65:                                               ; preds = %64, %49
  %.pn.pn.pn.pn.pn = phi { ptr, i32 } [ %.pn.pn.pn.pn, %64 ], [ %50, %49 ]
  %.5 = phi i1 [ %.4, %64 ], [ true, %49 ]
  call void @_ZNSt7__cxx1112basic_stringIcSt11char_traitsIcESaIcEED1Ev(ptr noundef nonnull align 8 dereferenceable(32) %11) #17
  br label %66

66:                                               ; preds = %65, %47
  %.pn.pn.pn.pn.pn.pn = phi { ptr, i32 } [ %.pn.pn.pn.pn.pn, %65 ], [ %48, %47 ]
  %.6 = phi i1 [ %.5, %65 ], [ true, %47 ]
  call void @_ZNSaIcED1Ev(ptr noundef nonnull align 1 dereferenceable(1) %12) #17
  call void @_ZNSt7__cxx1112basic_stringIcSt11char_traitsIcESaIcEED1Ev(ptr noundef nonnull align 8 dereferenceable(32) %7) #17
  br label %67

67:                                               ; preds = %45, %66
  %.pn.pn.pn.pn.pn.pn.pn = phi { ptr, i32 } [ %.pn.pn.pn.pn.pn.pn, %66 ], [ %46, %45 ]
  %.7 = phi i1 [ %.6, %66 ], [ true, %45 ]
  call void @_ZNSt7__cxx1112basic_stringIcSt11char_traitsIcESaIcEED1Ev(ptr noundef nonnull align 8 dereferenceable(32) %8) #17
  call void @_ZNSt7__cxx1112basic_stringIcSt11char_traitsIcESaIcEED1Ev(ptr noundef nonnull align 8 dereferenceable(32) %9) #17
  br i1 %.7, label %68, label %69

68:                                               ; preds = %.thread42, %.thread, %67
  %.pn.pn.pn.pn.pn.pn.pn.pn.pn41 = phi { ptr, i32 } [ %43, %.thread ], [ %.pn.pn.pn.pn.pn.pn.pn, %67 ], [ %44, %.thread42 ]
  call void @__cxa_free_exception(ptr %25) #17
  br label %69

69:                                               ; preds = %68, %67
  %.pn.pn.pn.pn.pn.pn.pn.pn.pn40 = phi { ptr, i32 } [ %.pn.pn.pn.pn.pn.pn.pn.pn.pn41, %68 ], [ %.pn.pn.pn.pn.pn.pn.pn, %67 ]
  invoke void @__cxa_end_catch()
          to label %70 unwind label %71

70:                                               ; preds = %69, %17
  %.merged = phi { ptr, i32 } [ %.pn.pn.pn.pn.pn.pn.pn.pn.pn40, %69 ], [ %18, %17 ]
  resume { ptr, i32 } %.merged

71:                                               ; preds = %69
  %72 = landingpad { ptr, i32 }
          catch ptr null
  %73 = extractvalue { ptr, i32 } %72, 0
  call void @__clang_call_terminate(ptr %73) #19
  unreachable

74:                                               ; preds = %42
  unreachable
}